target datalayout = "e-m:e-p270:32:32-p271:32:32-p272:64:64-i64:64-i128:128-f80:128-n8:16:32:64-S128"
target triple = "x86_64-pc-linux-gnu"

%"class.icu_77::UnicodeSetIterator" = type { %"class.icu_77::UObject", i32, i32, ptr, ptr, i32, i32, i32, i32, i32, i32, ptr }
%"class.icu_77::UObject" = type { ptr }
%"class.icu_77::UnicodeString" = type { %"class.icu_77::Replaceable", %"union.icu_77::UnicodeString::StackBufferOrFields" }
%"class.icu_77::Replaceable" = type { %"class.icu_77::UObject" }
%"union.icu_77::UnicodeString::StackBufferOrFields" = type { %struct.anon.0, [32 x i8] }
%struct.anon.0 = type { i16, i32, i32, ptr }
%struct.anon = type { i16, [27 x i16] }

@.str.7 = private unnamed_addr constant [3 x i8] c",\0A\00", align 1
@.str.14 = private unnamed_addr constant [3 x i8] c"  \00", align 1
@.str.28 = private unnamed_addr constant [51 x i8] c"# Inclusive ranges of the code points in the set.\0A\00", align 1
@.str.29 = private unnamed_addr constant [12 x i8] c"ranges = [\0A\00", align 1
@.str.30 = private unnamed_addr constant [15 x i8] c"]\0Astrings = [\0A\00", align 1
@.str.31 = private unnamed_addr constant [17 x i8] c"  [0x%x, 0x%x],\0A\00", align 1
@.str.32 = private unnamed_addr constant [3 x i8] c"]\0A\00", align 1

; Function Attrs: inlinehint mustprogress nounwind uwtable
define linkonce_odr noundef i32 @_ZNK6icu_7713UnicodeString14getShortLengthEv(ptr noundef nonnull align 8 dereferenceable(64) %0) #2 comdat align 2 {
  %2 = alloca ptr, align 8
  store ptr %0, ptr %2, align 8, !tbaa !75
  %3 = load ptr, ptr %2, align 8
  %4 = getelementptr inbounds nuw %"class.icu_77::UnicodeString", ptr %3, i32 0, i32 1
  %5 = getelementptr inbounds nuw %struct.anon.0, ptr %4, i32 0, i32 0
  %6 = load i16, ptr %5, align 8, !tbaa !27
  %7 = sext i16 %6 to i32
  %8 = ashr i32 %7, 5
  ret i32 %8
}

; Function Attrs: inlinehint mustprogress nounwind uwtable
define linkonce_odr noundef signext i8 @_ZNK6icu_7713UnicodeString14hasShortLengthEv(ptr noundef nonnull align 8 dereferenceable(64) %0) #2 comdat align 2 {
  %2 = alloca ptr, align 8
  store ptr %0, ptr %2, align 8, !tbaa !75
  %3 = load ptr, ptr %2, align 8
  %4 = getelementptr inbounds nuw %"class.icu_77::UnicodeString", ptr %3, i32 0, i32 1
  %5 = getelementptr inbounds nuw %struct.anon.0, ptr %4, i32 0, i32 0
  %6 = load i16, ptr %5, align 8, !tbaa !27
  %7 = sext i16 %6 to i32
  %8 = icmp sge i32 %7, 0
  %9 = zext i1 %8 to i8
  ret i8 %9
}

; Function Attrs: inlinehint mustprogress nounwind uwtable
define linkonce_odr noundef i32 @_ZNK6icu_7718UnicodeSetIterator15getCodepointEndEv(ptr noundef nonnull align 8 dereferenceable(64) %0) #2 comdat align 2 {
  %2 = alloca ptr, align 8
  store ptr %0, ptr %2, align 8, !tbaa !78
  %3 = load ptr, ptr %2, align 8
  %4 = getelementptr inbounds nuw %"class.icu_77::UnicodeSetIterator", ptr %3, i32 0, i32 2
  %5 = load i32, ptr %4, align 4, !tbaa !88
  ret i32 %5
}

; Function Attrs: inlinehint mustprogress nounwind uwtable
define linkonce_odr noundef i32 @_ZNK6icu_7718UnicodeSetIterator12getCodepointEv(ptr noundef nonnull align 8 dereferenceable(64) %0) #2 comdat align 2 {
  %2 = alloca ptr, align 8
  store ptr %0, ptr %2, align 8, !tbaa !78
  %3 = load ptr, ptr %2, align 8
  %4 = getelementptr inbounds nuw %"class.icu_77::UnicodeSetIterator", ptr %3, i32 0, i32 1
  %5 = load i32, ptr %4, align 8, !tbaa !80
  ret i32 %5
}

; Function Attrs: inlinehint mustprogress uwtable
define linkonce_odr noundef i32 @_ZNK6icu_7713UnicodeString6lengthEv(ptr noundef nonnull align 8 dereferenceable(64) %0) #3 comdat align 2 {
  %2 = alloca ptr, align 8
  store ptr %0, ptr %2, align 8, !tbaa !75
  %3 = load ptr, ptr %2, align 8
  %4 = call noundef signext i8 @_ZNK6icu_7713UnicodeString14hasShortLengthEv(ptr noundef nonnull align 8 dereferenceable(64) %3)
  %5 = icmp ne i8 %4, 0
  br i1 %5, label %6, label %8

6:                                                ; preds = %1
  %7 = call noundef i32 @_ZNK6icu_7713UnicodeString14getShortLengthEv(ptr noundef nonnull align 8 dereferenceable(64) %3)
  br label %12

8:                                                ; preds = %1
  %9 = getelementptr inbounds nuw %"class.icu_77::UnicodeString", ptr %3, i32 0, i32 1
  %10 = getelementptr inbounds nuw %struct.anon.0, ptr %9, i32 0, i32 1
  %11 = load i32, ptr %10, align 4, !tbaa !27
  br label %12

12:                                               ; preds = %8, %6
  %13 = phi i32 [ %7, %6 ], [ %11, %8 ]
  ret i32 %13
}

; Function Attrs: inlinehint mustprogress nounwind uwtable
define linkonce_odr noundef ptr @_ZNK6icu_7713UnicodeString9getBufferEv(ptr noundef nonnull align 8 dereferenceable(64) %0) #2 comdat align 2 {
  %2 = alloca ptr, align 8
  %3 = alloca ptr, align 8
  store ptr %0, ptr %3, align 8, !tbaa !75
  %4 = load ptr, ptr %3, align 8
  %5 = getelementptr inbounds nuw %"class.icu_77::UnicodeString", ptr %4, i32 0, i32 1
  %6 = getelementptr inbounds nuw %struct.anon.0, ptr %5, i32 0, i32 0
  %7 = load i16, ptr %6, align 8, !tbaa !27
  %8 = sext i16 %7 to i32
  %9 = and i32 %8, 17
  %10 = icmp ne i32 %9, 0
  br i1 %10, label %11, label %12

11:                                               ; preds = %1
  store ptr null, ptr %2, align 8
  br label %27

12:                                               ; preds = %1
  %13 = getelementptr inbounds nuw %"class.icu_77::UnicodeString", ptr %4, i32 0, i32 1
  %14 = getelementptr inbounds nuw %struct.anon.0, ptr %13, i32 0, i32 0
  %15 = load i16, ptr %14, align 8, !tbaa !27
  %16 = sext i16 %15 to i32
  %17 = and i32 %16, 2
  %18 = icmp ne i32 %17, 0
  br i1 %18, label %19, label %23

19:                                               ; preds = %12
  %20 = getelementptr inbounds nuw %"class.icu_77::UnicodeString", ptr %4, i32 0, i32 1
  %21 = getelementptr inbounds nuw %struct.anon, ptr %20, i32 0, i32 1
  %22 = getelementptr inbounds [27 x i16], ptr %21, i64 0, i64 0
  store ptr %22, ptr %2, align 8
  br label %27

23:                                               ; preds = %12
  %24 = getelementptr inbounds nuw %"class.icu_77::UnicodeString", ptr %4, i32 0, i32 1
  %25 = getelementptr inbounds nuw %struct.anon.0, ptr %24, i32 0, i32 3
  %26 = load ptr, ptr %25, align 8, !tbaa !27
  store ptr %26, ptr %2, align 8
  br label %27

27:                                               ; preds = %23, %19, %11
  %28 = load ptr, ptr %2, align 8
  ret ptr %28
}

; Function Attrs: inlinehint mustprogress nounwind uwtable
define linkonce_odr noundef signext i8 @_ZNK6icu_7718UnicodeSetIterator8isStringEv(ptr noundef nonnull align 8 dereferenceable(64) %0) #2 comdat align 2 {
  %2 = alloca ptr, align 8
  store ptr %0, ptr %2, align 8, !tbaa !78
  %3 = load ptr, ptr %2, align 8
  %4 = getelementptr inbounds nuw %"class.icu_77::UnicodeSetIterator", ptr %3, i32 0, i32 1
  %5 = load i32, ptr %4, align 8, !tbaa !80
  %6 = icmp slt i32 %5, 0
  %7 = zext i1 %6 to i8
  ret i8 %7
}

; Function Attrs: inlinehint mustprogress nounwind uwtable
define linkonce_odr noundef ptr @_ZN6icu_7710UnicodeSet8fromUSetEPK4USet(ptr noundef %0) #2 comdat align 2 {
  %2 = alloca ptr, align 8
  store ptr %0, ptr %2, align 8, !tbaa !67
  %3 = load ptr, ptr %2, align 8, !tbaa !67
  ret ptr %3
}

; Function Attrs: mustprogress uwtable
define void @usrc_writeUnicodeSet(ptr noundef %0, ptr noundef %1, i32 noundef %2) #1 personality ptr @__gxx_personality_v0 {
  %4 = alloca ptr, align 8
  %5 = alloca ptr, align 8
  %6 = alloca i32, align 4
  %7 = alloca ptr, align 8
  %8 = alloca %"class.icu_77::UnicodeSetIterator", align 8
  %9 = alloca i8, align 1
  %10 = alloca ptr, align 8
  %11 = alloca i32, align 4
  %12 = alloca ptr, align 8
  %13 = alloca i32, align 4
  %14 = alloca i32, align 4
  store ptr %0, ptr %4, align 8, !tbaa !25
  store ptr %1, ptr %5, align 8, !tbaa !67
  store i32 %2, ptr %6, align 4, !tbaa !54
  call void @llvm.lifetime.start.p0(i64 8, ptr %7) #16
  %15 = load ptr, ptr %5, align 8, !tbaa !67
  %16 = call noundef ptr @_ZN6icu_7710UnicodeSet8fromUSetEPK4USet(ptr noundef %15)
  store ptr %16, ptr %7, align 8, !tbaa !69
  call void @llvm.lifetime.start.p0(i64 64, ptr %8) #16
  %17 = load ptr, ptr %7, align 8, !tbaa !69
  call void @_ZN6icu_7718UnicodeSetIteratorC1ERKNS_10UnicodeSetE(ptr noundef nonnull align 8 dereferenceable(64) %8, ptr noundef nonnull align 8 dereferenceable(200) %17)
  %18 = load ptr, ptr %4, align 8, !tbaa !25
  %19 = call i32 (ptr, ptr, ...) @fprintf(ptr noundef %18, ptr noundef @.str.28) #16
  %20 = load ptr, ptr %4, align 8, !tbaa !25
  %21 = call i32 (ptr, ptr, ...) @fprintf(ptr noundef %20, ptr noundef @.str.29) #16
  call void @llvm.lifetime.start.p0(i64 1, ptr %9) #16
  store i8 0, ptr %9, align 1, !tbaa !71
  br label %22

22:                                               ; preds = %78, %3
  %23 = invoke noundef signext i8 @_ZN6icu_7718UnicodeSetIterator9nextRangeEv(ptr noundef nonnull align 8 dereferenceable(64) %8)
          to label %24 unwind label %36

24:                                               ; preds = %22
  %25 = icmp ne i8 %23, 0
  br i1 %25, label %26, label %79

26:                                               ; preds = %24
  %27 = invoke noundef signext i8 @_ZNK6icu_7718UnicodeSetIterator8isStringEv(ptr noundef nonnull align 8 dereferenceable(64) %8)
          to label %28 unwind label %36

28:                                               ; preds = %26
  %29 = icmp ne i8 %27, 0
  br i1 %29, label %30, label %60

30:                                               ; preds = %28
  %31 = load i8, ptr %9, align 1, !tbaa !71, !range !73, !noundef !74
  %32 = trunc i8 %31 to i1
  br i1 %32, label %40, label %33

33:                                               ; preds = %30
  store i8 1, ptr %9, align 1, !tbaa !71
  %34 = load ptr, ptr %4, align 8, !tbaa !25
  %35 = call i32 (ptr, ptr, ...) @fprintf(ptr noundef %34, ptr noundef @.str.30) #16
  br label %40

36:                                               ; preds = %26, %22
  %37 = landingpad { ptr, i32 }
          cleanup
  %38 = extractvalue { ptr, i32 } %37, 0
  store ptr %38, ptr %10, align 8
  %39 = extractvalue { ptr, i32 } %37, 1
  store i32 %39, ptr %11, align 4
  br label %82

40:                                               ; preds = %33, %30
  call void @llvm.lifetime.start.p0(i64 8, ptr %12) #16
  %41 = invoke noundef nonnull align 8 dereferenceable(64) ptr @_ZN6icu_7718UnicodeSetIterator9getStringEv(ptr noundef nonnull align 8 dereferenceable(64) %8)
          to label %42 unwind label %56

42:                                               ; preds = %40
  store ptr %41, ptr %12, align 8, !tbaa !75
  %43 = load ptr, ptr %4, align 8, !tbaa !25
  %44 = call i32 (ptr, ptr, ...) @fprintf(ptr noundef %43, ptr noundef @.str.14) #16
  %45 = load ptr, ptr %4, align 8, !tbaa !25
  %46 = load ptr, ptr %12, align 8, !tbaa !75
  %47 = invoke noundef ptr @_ZNK6icu_7713UnicodeString9getBufferEv(ptr noundef nonnull align 8 dereferenceable(64) %46)
          to label %48 unwind label %56

48:                                               ; preds = %42
  %49 = load ptr, ptr %12, align 8, !tbaa !75
  %50 = invoke noundef i32 @_ZNK6icu_7713UnicodeString6lengthEv(ptr noundef nonnull align 8 dereferenceable(64) %49)
          to label %51 unwind label %56

51:                                               ; preds = %48
  %52 = load i32, ptr %6, align 4, !tbaa !54
  invoke void @usrc_writeStringAsASCII(ptr noundef %45, ptr noundef %47, i32 noundef %50, i32 noundef %52)
          to label %53 unwind label %56

53:                                               ; preds = %51
  %54 = load ptr, ptr %4, align 8, !tbaa !25
  %55 = call i32 (ptr, ptr, ...) @fprintf(ptr noundef %54, ptr noundef @.str.7) #16
  call void @llvm.lifetime.end.p0(i64 8, ptr %12) #16
  br label %78

56:                                               ; preds = %51, %48, %42, %40
  %57 = landingpad { ptr, i32 }
          cleanup
  %58 = extractvalue { ptr, i32 } %57, 0
  store ptr %58, ptr %10, align 8
  %59 = extractvalue { ptr, i32 } %57, 1
  store i32 %59, ptr %11, align 4
  call void @llvm.lifetime.end.p0(i64 8, ptr %12) #16
  br label %82

60:                                               ; preds = %28
  call void @llvm.lifetime.start.p0(i64 4, ptr %13) #16
  %61 = invoke noundef i32 @_ZNK6icu_7718UnicodeSetIterator12getCodepointEv(ptr noundef nonnull align 8 dereferenceable(64) %8)
          to label %62 unwind label %69

62:                                               ; preds = %60
  store i32 %61, ptr %13, align 4, !tbaa !14
  call void @llvm.lifetime.start.p0(i64 4, ptr %14) #16
  %63 = invoke noundef i32 @_ZNK6icu_7718UnicodeSetIterator15getCodepointEndEv(ptr noundef nonnull align 8 dereferenceable(64) %8)
          to label %64 unwind label %73

64:                                               ; preds = %62
  store i32 %63, ptr %14, align 4, !tbaa !14
  %65 = load ptr, ptr %4, align 8, !tbaa !25
  %66 = load i32, ptr %13, align 4, !tbaa !14
  %67 = load i32, ptr %14, align 4, !tbaa !14
  %68 = call i32 (ptr, ptr, ...) @fprintf(ptr noundef %65, ptr noundef @.str.31, i32 noundef %66, i32 noundef %67) #16
  call void @llvm.lifetime.end.p0(i64 4, ptr %14) #16
  call void @llvm.lifetime.end.p0(i64 4, ptr %13) #16
  br label %78

69:                                               ; preds = %60
  %70 = landingpad { ptr, i32 }
          cleanup
  %71 = extractvalue { ptr, i32 } %70, 0
  store ptr %71, ptr %10, align 8
  %72 = extractvalue { ptr, i32 } %70, 1
  store i32 %72, ptr %11, align 4
  br label %77

73:                                               ; preds = %62
  %74 = landingpad { ptr, i32 }
          cleanup
  %75 = extractvalue { ptr, i32 } %74, 0
  store ptr %75, ptr %10, align 8
  %76 = extractvalue { ptr, i32 } %74, 1
  store i32 %76, ptr %11, align 4
  call void @llvm.lifetime.end.p0(i64 4, ptr %14) #16
  br label %77

77:                                               ; preds = %73, %69
  call void @llvm.lifetime.end.p0(i64 4, ptr %13) #16
  br label %82

78:                                               ; preds = %64, %53
  br label %22, !llvm.loop !77

79:                                               ; preds = %24
  %80 = load ptr, ptr %4, align 8, !tbaa !25
  %81 = call i32 (ptr, ptr, ...) @fprintf(ptr noundef %80, ptr noundef @.str.32) #16
  call void @llvm.lifetime.end.p0(i64 1, ptr %9) #16
  call void @_ZN6icu_7718UnicodeSetIteratorD1Ev(ptr noundef nonnull align 8 dereferenceable(64) %8) #16
  call void @llvm.lifetime.end.p0(i64 64, ptr %8) #16
  call void @llvm.lifetime.end.p0(i64 8, ptr %7) #16
  ret void

82:                                               ; preds = %77, %56, %36
  call void @llvm.lifetime.end.p0(i64 1, ptr %9) #16
  call void @_ZN6icu_7718UnicodeSetIteratorD1Ev(ptr noundef nonnull align 8 dereferenceable(64) %8) #16
  call void @llvm.lifetime.end.p0(i64 64, ptr %8) #16
  call void @llvm.lifetime.end.p0(i64 8, ptr %7) #16
  br label %83

83:                                               ; preds = %82
  %84 = load ptr, ptr %10, align 8
  %85 = load i32, ptr %11, align 4
  %86 = insertvalue { ptr, i32 } poison, ptr %84, 0
  %87 = insertvalue { ptr, i32 } %86, i32 %85, 1
  resume { ptr, i32 } %87
}