; Function Attrs: mustprogress uwtable
define void @usrc_writeUnicodeSet(ptr noundef captures(none) %0, ptr noundef nonnull %1, i32 noundef %2) local_unnamed_addr #1 personality ptr @__gxx_personality_v0 {
  %4 = alloca %"class.icu_77::UnicodeSetIterator", align 8
  call void @llvm.lifetime.start.p0(i64 64, ptr nonnull %4) #24
  call void @_ZN6icu_7718UnicodeSetIteratorC1ERKNS_10UnicodeSetE(ptr noundef nonnull align 8 dereferenceable(64) %4, ptr noundef nonnull align 8 dereferenceable(200) %1)
  %5 = call i64 @fwrite(ptr nonnull @.str.28, i64 50, i64 1, ptr %0)
  %6 = call i64 @fwrite(ptr nonnull @.str.29, i64 11, i64 1, ptr %0)
  %7 = getelementptr inbounds nuw i8, ptr %4, i64 8
  %8 = getelementptr inbounds nuw i8, ptr %4, i64 12
  br label %.outer

.outer:                                           ; preds = %40, %3
  %.0.ph = phi i1 [ true, %40 ], [ false, %3 ]
  br label %9

9:                                                ; preds = %.outer, %44
  %10 = invoke noundef signext i8 @_ZN6icu_7718UnicodeSetIterator9nextRangeEv(ptr noundef nonnull align 8 dereferenceable(64) %4)
          to label %11 unwind label %17

11:                                               ; preds = %9
  %.not = icmp eq i8 %10, 0
  br i1 %.not, label %47, label %12

12:                                               ; preds = %11
  %13 = load i32, ptr %7, align 8, !tbaa !49
  %.not19 = icmp sgt i32 %13, -1
  br i1 %.not19, label %44, label %14

14:                                               ; preds = %12
  br i1 %.0.ph, label %19, label %15

15:                                               ; preds = %14
  %16 = call i64 @fwrite(ptr nonnull @.str.30, i64 14, i64 1, ptr %0)
  br label %19

17:                                               ; preds = %9
  %18 = landingpad { ptr, i32 }
          cleanup
  br label %49

19:                                               ; preds = %15, %14
  %20 = invoke noundef nonnull align 8 dereferenceable(64) ptr @_ZN6icu_7718UnicodeSetIterator9getStringEv(ptr noundef nonnull align 8 dereferenceable(64) %4)
          to label %21 unwind label %42

21:                                               ; preds = %19
  %22 = call i64 @fwrite(ptr nonnull @.str.14, i64 2, i64 1, ptr %0)
  %23 = getelementptr inbounds nuw i8, ptr %20, i64 8
  %24 = load i16, ptr %23, align 8, !tbaa !15
  %25 = and i16 %24, 17
  %.not.i = icmp eq i16 %25, 0
  br i1 %.not.i, label %26, label %33

26:                                               ; preds = %21
  %27 = and i16 %24, 2
  %.not2.i = icmp eq i16 %27, 0
  br i1 %.not2.i, label %30, label %28

28:                                               ; preds = %26
  %29 = getelementptr inbounds nuw i8, ptr %20, i64 10
  br label %33

30:                                               ; preds = %26
  %31 = getelementptr inbounds nuw i8, ptr %20, i64 24
  %32 = load ptr, ptr %31, align 8, !tbaa !15
  br label %33

33:                                               ; preds = %30, %28, %21
  %.0.i = phi ptr [ %29, %28 ], [ %32, %30 ], [ null, %21 ]
  %34 = icmp slt i16 %24, 0
  %35 = ashr i16 %24, 5
  %36 = sext i16 %35 to i32
  %37 = getelementptr inbounds nuw i8, ptr %20, i64 12
  %38 = load i32, ptr %37, align 4
  %39 = select i1 %34, i32 %38, i32 %36
  invoke void @usrc_writeStringAsASCII(ptr noundef %0, ptr noundef %.0.i, i32 noundef %39, i32 poison)
          to label %40 unwind label %42

40:                                               ; preds = %33
  %41 = call i64 @fwrite(ptr nonnull @.str.7, i64 2, i64 1, ptr %0)
  br label %.outer, !llvm.loop !54

42:                                               ; preds = %33, %19
  %43 = landingpad { ptr, i32 }
          cleanup
  br label %49

44:                                               ; preds = %12
  %45 = load i32, ptr %8, align 4, !tbaa !55
  %46 = call i32 (ptr, ptr, ...) @fprintf(ptr noundef %0, ptr noundef nonnull @.str.31, i32 noundef %13, i32 noundef %45) #24
  br label %9, !llvm.loop !54

47:                                               ; preds = %11
  %48 = call i64 @fwrite(ptr nonnull @.str.32, i64 2, i64 1, ptr %0)
  call void @_ZN6icu_7718UnicodeSetIteratorD1Ev(ptr noundef nonnull align 8 dereferenceable(64) %4) #24
  call void @llvm.lifetime.end.p0(i64 64, ptr nonnull %4) #24
  ret void

49:                                               ; preds = %42, %17
  %.pn = phi { ptr, i32 } [ %43, %42 ], [ %18, %17 ]
  call void @_ZN6icu_7718UnicodeSetIteratorD1Ev(ptr noundef nonnull align 8 dereferenceable(64) %4) #24
  call void @llvm.lifetime.end.p0(i64 64, ptr nonnull %4) #24
  resume { ptr, i32 } %.pn
}